; Function Attrs: mustprogress uwtable
define void @_ZN5faiss16ProductQuantizerC2Emmm(ptr noundef nonnull align 8 dereferenceable(208) %0, i64 noundef %1, i64 noundef %2, i64 noundef %3) unnamed_addr #0 align 2 personality ptr @__gxx_personality_v0 {
  %5 = getelementptr inbounds i8, ptr %0, i64 8
  store i64 %1, ptr %5, align 8
  %6 = getelementptr inbounds i8, ptr %0, i64 16
  store i64 0, ptr %6, align 8
  store ptr getelementptr inbounds ({ [7 x ptr] }, ptr @_ZTVN5faiss16ProductQuantizerE, i64 0, i32 0, i64 2), ptr %0, align 8
  %7 = getelementptr inbounds i8, ptr %0, i64 24
  store i64 %2, ptr %7, align 8
  %8 = getelementptr inbounds i8, ptr %0, i64 32
  store i64 %3, ptr %8, align 8
  %9 = getelementptr inbounds i8, ptr %0, i64 64
  store i32 25, ptr %9, align 8
  %10 = getelementptr inbounds i8, ptr %0, i64 68
  store i32 1, ptr %10, align 4
  %11 = getelementptr inbounds i8, ptr %0, i64 72
  %12 = getelementptr inbounds i8, ptr %0, i64 80
  tail call void @llvm.memset.p0.i64(ptr noundef nonnull align 8 dereferenceable(5) %11, i8 0, i64 5, i1 false)
  store i32 39, ptr %12, align 8
  %13 = getelementptr inbounds i8, ptr %0, i64 84
  store i32 256, ptr %13, align 4
  %14 = getelementptr inbounds i8, ptr %0, i64 88
  store i32 1234, ptr %14, align 8
  %15 = getelementptr inbounds i8, ptr %0, i64 96
  store i64 32768, ptr %15, align 8
  %16 = getelementptr inbounds i8, ptr %0, i64 104
  %17 = getelementptr inbounds i8, ptr %0, i64 112
  %18 = getelementptr inbounds i8, ptr %0, i64 136
  %19 = getelementptr inbounds i8, ptr %0, i64 160
  tail call void @llvm.memset.p0.i64(ptr noundef nonnull align 8 dereferenceable(104) %16, i8 0, i64 104, i1 false)
  invoke void @_ZN5faiss16ProductQuantizer18set_derived_valuesEv(ptr noundef nonnull align 8 dereferenceable(208) %0)
          to label %20 unwind label %21

20:                                               ; preds = %4
  ret void

21:                                               ; preds = %4
  %22 = landingpad { ptr, i32 }
          cleanup
  %23 = getelementptr inbounds i8, ptr %0, i64 184
  %24 = load ptr, ptr %23, align 8
  %.not.i.i.i = icmp eq ptr %24, null
  br i1 %.not.i.i.i, label %_ZNSt6vectorIfSaIfEED2Ev.exit, label %25

25:                                               ; preds = %21
  tail call void @_ZdlPv(ptr noundef nonnull %24) #24
  br label %_ZNSt6vectorIfSaIfEED2Ev.exit

_ZNSt6vectorIfSaIfEED2Ev.exit:                    ; preds = %21, %25
  %26 = load ptr, ptr %19, align 8
  %.not.i.i.i5 = icmp eq ptr %26, null
  br i1 %.not.i.i.i5, label %_ZNSt6vectorIfSaIfEED2Ev.exit6, label %27

27:                                               ; preds = %_ZNSt6vectorIfSaIfEED2Ev.exit
  tail call void @_ZdlPv(ptr noundef nonnull %26) #24
  br label %_ZNSt6vectorIfSaIfEED2Ev.exit6

_ZNSt6vectorIfSaIfEED2Ev.exit6:                   ; preds = %_ZNSt6vectorIfSaIfEED2Ev.exit, %27
  %28 = load ptr, ptr %18, align 8
  %.not.i.i.i7 = icmp eq ptr %28, null
  br i1 %.not.i.i.i7, label %_ZNSt6vectorIfSaIfEED2Ev.exit8, label %29

29:                                               ; preds = %_ZNSt6vectorIfSaIfEED2Ev.exit6
  tail call void @_ZdlPv(ptr noundef nonnull %28) #24
  br label %_ZNSt6vectorIfSaIfEED2Ev.exit8

_ZNSt6vectorIfSaIfEED2Ev.exit8:                   ; preds = %_ZNSt6vectorIfSaIfEED2Ev.exit6, %29
  %30 = load ptr, ptr %17, align 8
  %.not.i.i.i9 = icmp eq ptr %30, null
  br i1 %.not.i.i.i9, label %_ZNSt6vectorIfSaIfEED2Ev.exit10, label %31

31:                                               ; preds = %_ZNSt6vectorIfSaIfEED2Ev.exit8
  tail call void @_ZdlPv(ptr noundef nonnull %30) #24
  br label %_ZNSt6vectorIfSaIfEED2Ev.exit10

_ZNSt6vectorIfSaIfEED2Ev.exit10:                  ; preds = %_ZNSt6vectorIfSaIfEED2Ev.exit8, %31
  resume { ptr, i32 } %22
}